; Function Attrs: nounwind uwtable
define range(i32 -101, 1) i32 @CVodeSetAdjNoSensi(ptr noundef %0) local_unnamed_addr #0 {
  %2 = icmp eq ptr %0, null
  br i1 %2, label %3, label %4

3:                                                ; preds = %1
  tail call void (ptr, i32, i32, ptr, ptr, ptr, ...) @cvProcessError(ptr noundef null, i32 noundef -21, i32 noundef 63, ptr noundef nonnull @__func__.CVodeSetAdjNoSensi, ptr noundef nonnull @.str, ptr noundef nonnull @.str.1) #2
  br label %13

4:                                                ; preds = %1
  %5 = getelementptr inbounds nuw i8, ptr %0, i64 2680
  %6 = load i32, ptr %5, align 8
  %7 = icmp eq i32 %6, 0
  br i1 %7, label %8, label %9

8:                                                ; preds = %4
  tail call void (ptr, i32, i32, ptr, ptr, ptr, ...) @cvProcessError(ptr noundef nonnull %0, i32 noundef -101, i32 noundef 71, ptr noundef nonnull @__func__.CVodeSetAdjNoSensi, ptr noundef nonnull @.str, ptr noundef nonnull @.str.2) #2
  br label %13

9:                                                ; preds = %4
  %10 = getelementptr inbounds nuw i8, ptr %0, i64 2672
  %11 = load ptr, ptr %10, align 8
  %12 = getelementptr inbounds nuw i8, ptr %11, i64 184
  store i32 0, ptr %12, align 8
  br label %13

13:                                               ; preds = %9, %8, %3
  %.0 = phi i32 [ -21, %3 ], [ -101, %8 ], [ 0, %9 ]
  ret i32 %.0
}